target datalayout = "e-m:e-p270:32:32-p271:32:32-p272:64:64-i64:64-i128:128-f80:128-n8:16:32:64-S128"
target triple = "x86_64-unknown-linux-gnu"

%"class.cvc5::internal::Result" = type { i32, i32, %"class.std::__cxx11::basic_string" }
%"class.std::__cxx11::basic_string" = type { %"struct.std::__cxx11::basic_string<char>::_Alloc_hider", i64, %union.anon }
%"struct.std::__cxx11::basic_string<char>::_Alloc_hider" = type { ptr }
%union.anon = type { i64, [8 x i8] }

; Function Attrs: mustprogress nounwind uwtable
define hidden noundef zeroext i1 @_ZNK4cvc58internal6ResulteqERKS1_(ptr noundef nonnull align 8 dereferenceable(40) %this, ptr noundef nonnull align 8 dereferenceable(40) %r) #5 align 2 {
entry:
  %this.addr = alloca ptr, align 8
  %r.addr = alloca ptr, align 8
  store ptr %this, ptr %this.addr, align 8
  store ptr %r, ptr %r.addr, align 8
  %this1 = load ptr, ptr %this.addr, align 8
  %d_status = getelementptr inbounds %"class.cvc5::internal::Result", ptr %this1, i32 0, i32 0
  %0 = load i32, ptr %d_status, align 8
  %1 = load ptr, ptr %r.addr, align 8
  %d_status2 = getelementptr inbounds %"class.cvc5::internal::Result", ptr %1, i32 0, i32 0
  %2 = load i32, ptr %d_status2, align 8
  %cmp = icmp eq i32 %0, %2
  br i1 %cmp, label %land.rhs, label %land.end

land.rhs:                                         ; preds = %entry
  %d_status3 = getelementptr inbounds %"class.cvc5::internal::Result", ptr %this1, i32 0, i32 0
  %3 = load i32, ptr %d_status3, align 8
  %cmp4 = icmp ne i32 %3, 3
  br i1 %cmp4, label %lor.end, label %lor.rhs

lor.rhs:                                          ; preds = %land.rhs
  %d_unknownExplanation = getelementptr inbounds %"class.cvc5::internal::Result", ptr %this1, i32 0, i32 1
  %4 = load i32, ptr %d_unknownExplanation, align 4
  %5 = load ptr, ptr %r.addr, align 8
  %d_unknownExplanation5 = getelementptr inbounds %"class.cvc5::internal::Result", ptr %5, i32 0, i32 1
  %6 = load i32, ptr %d_unknownExplanation5, align 4
  %cmp6 = icmp eq i32 %4, %6
  br label %lor.end

lor.end:                                          ; preds = %lor.rhs, %land.rhs
  %7 = phi i1 [ true, %land.rhs ], [ %cmp6, %lor.rhs ]
  br label %land.end

land.end:                                         ; preds = %lor.end, %entry
  %8 = phi i1 [ false, %entry ], [ %7, %lor.end ]
  ret i1 %8
}

; Function Attrs: mustprogress nounwind uwtable
define hidden noundef zeroext i1 @_ZNK4cvc58internal6ResultneERKS1_(ptr noundef nonnull align 8 dereferenceable(40) %this, ptr noundef nonnull align 8 dereferenceable(40) %r) #5 align 2 {
entry:
  %this.addr = alloca ptr, align 8
  %r.addr = alloca ptr, align 8
  store ptr %this, ptr %this.addr, align 8
  store ptr %r, ptr %r.addr, align 8
  %this1 = load ptr, ptr %this.addr, align 8
  %0 = load ptr, ptr %r.addr, align 8
  %call = call noundef zeroext i1 @_ZNK4cvc58internal6ResulteqERKS1_(ptr noundef nonnull align 8 dereferenceable(40) %this1, ptr noundef nonnull align 8 dereferenceable(40) %0)
  %lnot = xor i1 %call, true
  ret i1 %lnot
}