; Function Attrs: mustprogress nofree norecurse nosync nounwind willreturn memory(argmem: read) uwtable
define hidden noundef zeroext i1 @_ZNK4cvc58internal6ResultneERKS1_(ptr nocapture noundef nonnull readonly align 8 dereferenceable(40) %this, ptr nocapture noundef nonnull readonly align 8 dereferenceable(40) %r) local_unnamed_addr #6 align 2 {
entry:
  %0 = load i32, ptr %this, align 8
  %1 = load i32, ptr %r, align 8
  %cmp.i = icmp eq i32 %0, %1
  br i1 %cmp.i, label %land.rhs.i, label %_ZNK4cvc58internal6ResulteqERKS1_.exit

land.rhs.i:                                       ; preds = %entry
  %cmp4.not.i = icmp eq i32 %0, 3
  br i1 %cmp4.not.i, label %lor.rhs.i, label %_ZNK4cvc58internal6ResulteqERKS1_.exit

lor.rhs.i:                                        ; preds = %land.rhs.i
  %d_unknownExplanation.i = getelementptr inbounds i8, ptr %this, i64 4
  %2 = load i32, ptr %d_unknownExplanation.i, align 4
  %d_unknownExplanation5.i = getelementptr inbounds i8, ptr %r, i64 4
  %3 = load i32, ptr %d_unknownExplanation5.i, align 4
  %cmp6.i = icmp ne i32 %2, %3
  br label %_ZNK4cvc58internal6ResulteqERKS1_.exit

_ZNK4cvc58internal6ResulteqERKS1_.exit:           ; preds = %entry, %land.rhs.i, %lor.rhs.i
  %lnot = phi i1 [ true, %entry ], [ false, %land.rhs.i ], [ %cmp6.i, %lor.rhs.i ]
  ret i1 %lnot
}